; Function Attrs: mustprogress uwtable
define dso_local noundef zeroext i1 @_ZNK14cmFileLockPool15IsAlreadyLockedERKNSt7__cxx1112basic_stringIcSt11char_traitsIcESaIcEEE(ptr noundef nonnull readonly align 8 captures(none) dereferenceable(72) %0, ptr noundef nonnull align 8 dereferenceable(32) %1) local_unnamed_addr #2 align 2 {
  %3 = load ptr, ptr %0, align 8
  %4 = getelementptr inbounds nuw i8, ptr %0, i64 8
  %5 = load ptr, ptr %4, align 8
  %.not21 = icmp eq ptr %3, %5
  br i1 %.not21, label %._crit_edge, label %.lr.ph

6:                                                ; preds = %.lr.ph
  %7 = getelementptr inbounds nuw i8, ptr %.sroa.016.022, i64 24
  %.not = icmp eq ptr %7, %5
  br i1 %.not, label %._crit_edge, label %.lr.ph

.lr.ph:                                           ; preds = %2, %6
  %.sroa.016.022 = phi ptr [ %7, %6 ], [ %3, %2 ]
  %8 = tail call noundef zeroext i1 @_ZNK14cmFileLockPool9ScopePool15IsAlreadyLockedERKNSt7__cxx1112basic_stringIcSt11char_traitsIcESaIcEEE(ptr noundef nonnull align 8 dereferenceable(24) %.sroa.016.022, ptr noundef nonnull align 8 dereferenceable(32) %1)
  br i1 %8, label %.loopexit, label %6

._crit_edge:                                      ; preds = %6, %2
  %9 = getelementptr inbounds nuw i8, ptr %0, i64 24
  %10 = load ptr, ptr %9, align 8
  %11 = getelementptr inbounds nuw i8, ptr %0, i64 32
  %12 = load ptr, ptr %11, align 8
  %.not1923 = icmp eq ptr %10, %12
  br i1 %.not1923, label %._crit_edge27, label %.lr.ph26

13:                                               ; preds = %.lr.ph26
  %14 = getelementptr inbounds nuw i8, ptr %.sroa.012.024, i64 24
  %.not19 = icmp eq ptr %14, %12
  br i1 %.not19, label %._crit_edge27, label %.lr.ph26

.lr.ph26:                                         ; preds = %._crit_edge, %13
  %.sroa.012.024 = phi ptr [ %14, %13 ], [ %10, %._crit_edge ]
  %15 = tail call noundef zeroext i1 @_ZNK14cmFileLockPool9ScopePool15IsAlreadyLockedERKNSt7__cxx1112basic_stringIcSt11char_traitsIcESaIcEEE(ptr noundef nonnull align 8 dereferenceable(24) %.sroa.012.024, ptr noundef nonnull align 8 dereferenceable(32) %1)
  br i1 %15, label %.loopexit, label %13

._crit_edge27:                                    ; preds = %13, %._crit_edge
  %16 = getelementptr inbounds nuw i8, ptr %0, i64 48
  %17 = tail call noundef zeroext i1 @_ZNK14cmFileLockPool9ScopePool15IsAlreadyLockedERKNSt7__cxx1112basic_stringIcSt11char_traitsIcESaIcEEE(ptr noundef nonnull align 8 dereferenceable(24) %16, ptr noundef nonnull align 8 dereferenceable(32) %1)
  br label %.loopexit

.loopexit:                                        ; preds = %.lr.ph, %.lr.ph26, %._crit_edge27
  %.0 = phi i1 [ %17, %._crit_edge27 ], [ true, %.lr.ph26 ], [ true, %.lr.ph ]
  ret i1 %.0
}